; Function Attrs: mustprogress uwtable
define void @_ZNK5arrow8internal6Bitmap8ToStringB5cxx11Ev(ptr dead_on_unwind noalias nonnull writable sret(%"class.std::__cxx11::basic_string") align 8 %0, ptr noundef nonnull readonly align 8 captures(none) dereferenceable(32) %1) local_unnamed_addr #1 align 2 personality ptr @__gxx_personality_v0 {
  %3 = getelementptr inbounds nuw i8, ptr %1, i64 24
  %4 = load i64, ptr %3, align 8, !tbaa !32
  %5 = add nsw i64 %4, -1
  %6 = sdiv i64 %5, 8
  %7 = add nsw i64 %6, %4
  %8 = getelementptr inbounds nuw i8, ptr %0, i64 16
  store ptr %8, ptr %0, align 8, !tbaa !36
  tail call void @_ZNSt7__cxx1112basic_stringIcSt11char_traitsIcESaIcEE12_M_constructEmc(ptr noundef nonnull align 8 dereferenceable(32) %0, i64 noundef %7, i8 noundef signext 32)
  %9 = load i64, ptr %3, align 8, !tbaa !32
  %10 = icmp sgt i64 %9, 0
  br i1 %10, label %.lr.ph, label %_ZNSt7__cxx1112basic_stringIcSt11char_traitsIcESaIcEEC2IS3_EEmcRKS3_.exit._crit_edge

.lr.ph:                                           ; preds = %2
  %11 = getelementptr inbounds nuw i8, ptr %1, i64 16
  br label %_ZNSt7__cxx1112basic_stringIcSt11char_traitsIcESaIcEEC2IS3_EEmcRKS3_.exit

_ZNSt7__cxx1112basic_stringIcSt11char_traitsIcESaIcEEC2IS3_EEmcRKS3_.exit: ; preds = %.lr.ph, %_ZNSt7__cxx1112basic_stringIcSt11char_traitsIcESaIcEEC2IS3_EEmcRKS3_.exit
  %.011 = phi i64 [ 0, %.lr.ph ], [ %28, %_ZNSt7__cxx1112basic_stringIcSt11char_traitsIcESaIcEEC2IS3_EEmcRKS3_.exit ]
  %12 = load ptr, ptr %1, align 8, !tbaa !38
  %13 = load i64, ptr %11, align 8, !tbaa !39
  %14 = add nsw i64 %13, %.011
  %15 = lshr i64 %14, 3
  %16 = getelementptr inbounds nuw i8, ptr %12, i64 %15
  %17 = load i8, ptr %16, align 1, !tbaa !40
  %18 = zext i8 %17 to i32
  %19 = trunc i64 %14 to i32
  %20 = and i32 %19, 7
  %21 = shl nuw nsw i32 1, %20
  %22 = and i32 %21, %18
  %.not = icmp eq i32 %22, 0
  %23 = select i1 %.not, i8 48, i8 49
  %24 = lshr i64 %.011, 3
  %25 = load ptr, ptr %0, align 8, !tbaa !41
  %26 = getelementptr inbounds nuw i8, ptr %25, i64 %.011
  %27 = getelementptr inbounds nuw i8, ptr %26, i64 %24
  store i8 %23, ptr %27, align 1, !tbaa !40
  %28 = add nuw nsw i64 %.011, 1
  %29 = load i64, ptr %3, align 8, !tbaa !32
  %30 = icmp slt i64 %28, %29
  br i1 %30, label %_ZNSt7__cxx1112basic_stringIcSt11char_traitsIcESaIcEEC2IS3_EEmcRKS3_.exit, label %_ZNSt7__cxx1112basic_stringIcSt11char_traitsIcESaIcEEC2IS3_EEmcRKS3_.exit._crit_edge, !llvm.loop !43

_ZNSt7__cxx1112basic_stringIcSt11char_traitsIcESaIcEEC2IS3_EEmcRKS3_.exit._crit_edge: ; preds = %_ZNSt7__cxx1112basic_stringIcSt11char_traitsIcESaIcEEC2IS3_EEmcRKS3_.exit, %2
  ret void
}